target datalayout = "e-m:e-p270:32:32-p271:32:32-p272:64:64-i64:64-i128:128-f80:128-n8:16:32:64-S128"
target triple = "x86_64-unknown-linux-gnu"

%"struct.std::pair" = type { i32, i32 }
%"class.polynomial::power" = type { %"struct.std::pair" }

; Function Attrs: mustprogress nounwind uwtable
define linkonce_odr hidden noundef i32 @_ZNK10polynomial5power6degreeEv(ptr noundef nonnull align 4 dereferenceable(8) %this) #4 comdat align 2 {
entry:
  %this.addr = alloca ptr, align 8
  store ptr %this, ptr %this.addr, align 8
  %this1 = load ptr, ptr %this.addr, align 8
  %second = getelementptr inbounds %"struct.std::pair", ptr %this1, i32 0, i32 1
  %0 = load i32, ptr %second, align 4
  ret i32 %0
}

; Function Attrs: mustprogress uwtable
define hidden noundef i32 @_ZN10polynomial26power_product_total_degreeEjPKNS_5powerE(i32 noundef %sz, ptr noundef %pws) #5 {
entry:
  %sz.addr = alloca i32, align 4
  %pws.addr = alloca ptr, align 8
  %r = alloca i32, align 4
  %i = alloca i32, align 4
  store i32 %sz, ptr %sz.addr, align 4
  store ptr %pws, ptr %pws.addr, align 8
  store i32 0, ptr %r, align 4
  store i32 0, ptr %i, align 4
  br label %for.cond

for.cond:                                         ; preds = %for.inc, %entry
  %0 = load i32, ptr %i, align 4
  %1 = load i32, ptr %sz.addr, align 4
  %cmp = icmp ult i32 %0, %1
  br i1 %cmp, label %for.body, label %for.end

for.body:                                         ; preds = %for.cond
  %2 = load ptr, ptr %pws.addr, align 8
  %3 = load i32, ptr %i, align 4
  %idxprom = zext i32 %3 to i64
  %arrayidx = getelementptr inbounds %"class.polynomial::power", ptr %2, i64 %idxprom
  %call = call noundef i32 @_ZNK10polynomial5power6degreeEv(ptr noundef nonnull align 4 dereferenceable(8) %arrayidx)
  %4 = load i32, ptr %r, align 4
  %add = add i32 %4, %call
  store i32 %add, ptr %r, align 4
  br label %for.inc

for.inc:                                          ; preds = %for.body
  %5 = load i32, ptr %i, align 4
  %inc = add i32 %5, 1
  store i32 %inc, ptr %i, align 4
  br label %for.cond, !llvm.loop !7

for.end:                                          ; preds = %for.cond
  %6 = load i32, ptr %r, align 4
  ret i32 %6
}