; Function Attrs: mustprogress nofree norecurse nosync nounwind willreturn memory(argmem: read) uwtable
define hidden noundef i32 @_ZN10polynomial26power_product_total_degreeEjPKNS_5powerE(i32 noundef %sz, ptr nocapture noundef readonly %pws) local_unnamed_addr #5 {
entry:
  %cmp4.not = icmp eq i32 %sz, 0
  br i1 %cmp4.not, label %for.end, label %for.body.preheader

for.body.preheader:                               ; preds = %entry
  %wide.trip.count = zext i32 %sz to i64
  br label %for.body

for.body:                                         ; preds = %for.body.preheader, %for.body
  %indvars.iv = phi i64 [ 0, %for.body.preheader ], [ %indvars.iv.next, %for.body ]
  %r.05 = phi i32 [ 0, %for.body.preheader ], [ %add, %for.body ]
  %second.i = getelementptr inbounds %"class.polynomial::power", ptr %pws, i64 %indvars.iv, i32 0, i32 1
  %0 = load i32, ptr %second.i, align 4
  %add = add i32 %0, %r.05
  %indvars.iv.next = add nuw nsw i64 %indvars.iv, 1
  %exitcond.not = icmp eq i64 %indvars.iv.next, %wide.trip.count
  br i1 %exitcond.not, label %for.end, label %for.body, !llvm.loop !7

for.end:                                          ; preds = %for.body, %entry
  %r.0.lcssa = phi i32 [ 0, %entry ], [ %add, %for.body ]
  ret i32 %r.0.lcssa
}